
EM_585.elf:     file format elf32-avr

Sections:
Idx Name          Size      VMA       LMA       File off  Algn
  0 .text         00000b6e  00000000  00000000  00000094  2**1
                  CONTENTS, ALLOC, LOAD, READONLY, CODE
  1 .data         00000002  00800060  00000b6e  00000c02  2**0
                  CONTENTS, ALLOC, LOAD, DATA
  2 .bss          00000012  00800062  00800062  00000c04  2**0
                  ALLOC
  3 .comment      00000030  00000000  00000000  00000c04  2**0
                  CONTENTS, READONLY
  4 .note.gnu.avr.deviceinfo 0000003c  00000000  00000000  00000c34  2**2
                  CONTENTS, READONLY
  5 .debug_aranges 00000218  00000000  00000000  00000c70  2**0
                  CONTENTS, READONLY, DEBUGGING
  6 .debug_info   00001cb7  00000000  00000000  00000e88  2**0
                  CONTENTS, READONLY, DEBUGGING
  7 .debug_abbrev 00000bbb  00000000  00000000  00002b3f  2**0
                  CONTENTS, READONLY, DEBUGGING
  8 .debug_line   0000100d  00000000  00000000  000036fa  2**0
                  CONTENTS, READONLY, DEBUGGING
  9 .debug_frame  00000594  00000000  00000000  00004708  2**2
                  CONTENTS, READONLY, DEBUGGING
 10 .debug_str    000007fb  00000000  00000000  00004c9c  2**0
                  CONTENTS, READONLY, DEBUGGING
 11 .debug_loc    000011b5  00000000  00000000  00005497  2**0
                  CONTENTS, READONLY, DEBUGGING
 12 .debug_ranges 000001b0  00000000  00000000  0000664c  2**0
                  CONTENTS, READONLY, DEBUGGING

Disassembly of section .text:

00000000 <__vectors>:
   0:	0c 94 2a 00 	jmp	0x54	; 0x54 <__ctors_end>
   4:	0c 94 ae 04 	jmp	0x95c	; 0x95c <__vector_1>
   8:	0c 94 d5 04 	jmp	0x9aa	; 0x9aa <__vector_2>
   c:	0c 94 fc 04 	jmp	0x9f8	; 0x9f8 <__vector_3>
  10:	0c 94 47 00 	jmp	0x8e	; 0x8e <__bad_interrupt>
  14:	0c 94 47 00 	jmp	0x8e	; 0x8e <__bad_interrupt>
  18:	0c 94 47 00 	jmp	0x8e	; 0x8e <__bad_interrupt>
  1c:	0c 94 47 00 	jmp	0x8e	; 0x8e <__bad_interrupt>
  20:	0c 94 47 00 	jmp	0x8e	; 0x8e <__bad_interrupt>
  24:	0c 94 47 00 	jmp	0x8e	; 0x8e <__bad_interrupt>
  28:	0c 94 5d 05 	jmp	0xaba	; 0xaba <__vector_10>
  2c:	0c 94 47 00 	jmp	0x8e	; 0x8e <__bad_interrupt>
  30:	0c 94 47 00 	jmp	0x8e	; 0x8e <__bad_interrupt>
  34:	0c 94 47 00 	jmp	0x8e	; 0x8e <__bad_interrupt>
  38:	0c 94 47 00 	jmp	0x8e	; 0x8e <__bad_interrupt>
  3c:	0c 94 47 00 	jmp	0x8e	; 0x8e <__bad_interrupt>
  40:	0c 94 69 03 	jmp	0x6d2	; 0x6d2 <__vector_16>
  44:	0c 94 47 00 	jmp	0x8e	; 0x8e <__bad_interrupt>
  48:	0c 94 47 00 	jmp	0x8e	; 0x8e <__bad_interrupt>
  4c:	0c 94 47 00 	jmp	0x8e	; 0x8e <__bad_interrupt>
  50:	0c 94 47 00 	jmp	0x8e	; 0x8e <__bad_interrupt>

00000054 <__ctors_end>:
  54:	11 24       	eor	r1, r1
  56:	1f be       	out	0x3f, r1	; 63
  58:	cf e5       	ldi	r28, 0x5F	; 95
  5a:	d8 e0       	ldi	r29, 0x08	; 8
  5c:	de bf       	out	0x3e, r29	; 62
  5e:	cd bf       	out	0x3d, r28	; 61

00000060 <__do_copy_data>:
  60:	10 e0       	ldi	r17, 0x00	; 0
  62:	a0 e6       	ldi	r26, 0x60	; 96
  64:	b0 e0       	ldi	r27, 0x00	; 0
  66:	ee e6       	ldi	r30, 0x6E	; 110
  68:	fb e0       	ldi	r31, 0x0B	; 11
  6a:	02 c0       	rjmp	.+4      	; 0x70 <__do_copy_data+0x10>
  6c:	05 90       	lpm	r0, Z+
  6e:	0d 92       	st	X+, r0
  70:	a2 36       	cpi	r26, 0x62	; 98
  72:	b1 07       	cpc	r27, r17
  74:	d9 f7       	brne	.-10     	; 0x6c <__do_copy_data+0xc>

00000076 <__do_clear_bss>:
  76:	20 e0       	ldi	r18, 0x00	; 0
  78:	a2 e6       	ldi	r26, 0x62	; 98
  7a:	b0 e0       	ldi	r27, 0x00	; 0
  7c:	01 c0       	rjmp	.+2      	; 0x80 <.do_clear_bss_start>

0000007e <.do_clear_bss_loop>:
  7e:	1d 92       	st	X+, r1

00000080 <.do_clear_bss_start>:
  80:	a4 37       	cpi	r26, 0x74	; 116
  82:	b2 07       	cpc	r27, r18
  84:	e1 f7       	brne	.-8      	; 0x7e <.do_clear_bss_loop>
  86:	0e 94 8e 01 	call	0x31c	; 0x31c <main>
  8a:	0c 94 b5 05 	jmp	0xb6a	; 0xb6a <_exit>

0000008e <__bad_interrupt>:
  8e:	0c 94 00 00 	jmp	0	; 0x0 <__vectors>

00000092 <alarm_display>:
	}
}*/


void alarm_display(u16 Time_seconds)
{
  92:	1f 93       	push	r17
  94:	cf 93       	push	r28
  96:	df 93       	push	r29
	u8 hours = 0 ;
  98:	10 e0       	ldi	r17, 0x00	; 0
	u8 minutes = 0 ;
	u8 seconds = 0 ;
	
	while(Time_seconds >= 3600)
  9a:	03 c0       	rjmp	.+6      	; 0xa2 <alarm_display+0x10>
	{
		Time_seconds -= 3600 ;
  9c:	80 51       	subi	r24, 0x10	; 16
  9e:	9e 40       	sbci	r25, 0x0E	; 14
		hours++ ;
  a0:	1f 5f       	subi	r17, 0xFF	; 255
{
	u8 hours = 0 ;
	u8 minutes = 0 ;
	u8 seconds = 0 ;
	
	while(Time_seconds >= 3600)
  a2:	80 31       	cpi	r24, 0x10	; 16
  a4:	2e e0       	ldi	r18, 0x0E	; 14
  a6:	92 07       	cpc	r25, r18
  a8:	c8 f7       	brcc	.-14     	; 0x9c <alarm_display+0xa>
  aa:	d0 e0       	ldi	r29, 0x00	; 0
  ac:	02 c0       	rjmp	.+4      	; 0xb2 <alarm_display+0x20>
		Time_seconds -= 3600 ;
		hours++ ;
	}
	while(Time_seconds >= 60)
	{
		Time_seconds -= 60;
  ae:	cc 97       	sbiw	r24, 0x3c	; 60
		minutes++ ;
  b0:	df 5f       	subi	r29, 0xFF	; 255
	while(Time_seconds >= 3600)
	{
		Time_seconds -= 3600 ;
		hours++ ;
	}
	while(Time_seconds >= 60)
  b2:	8c 33       	cpi	r24, 0x3C	; 60
  b4:	91 05       	cpc	r25, r1
  b6:	d8 f7       	brcc	.-10     	; 0xae <alarm_display+0x1c>
	{
		Time_seconds -= 60;
		minutes++ ;
	}
	seconds = Time_seconds ;
  b8:	c8 2f       	mov	r28, r24
	
	
	/*Hours Display*/
	if(hours < 10 && hours > 0)
  ba:	8f ef       	ldi	r24, 0xFF	; 255
  bc:	81 0f       	add	r24, r17
  be:	89 30       	cpi	r24, 0x09	; 9
  c0:	e0 f4       	brcc	.+56     	; 0xfa <alarm_display+0x68>
	{
		LCD_voidGotoXY(0,0);
  c2:	60 e0       	ldi	r22, 0x00	; 0
  c4:	80 e0       	ldi	r24, 0x00	; 0
  c6:	0e 94 52 03 	call	0x6a4	; 0x6a4 <LCD_voidGotoXY>
		LCD_voidSendNumber(0);
  ca:	60 e0       	ldi	r22, 0x00	; 0
  cc:	70 e0       	ldi	r23, 0x00	; 0
  ce:	cb 01       	movw	r24, r22
  d0:	0e 94 c7 02 	call	0x58e	; 0x58e <LCD_voidSendNumber>
		LCD_voidGotoXY(1,0);
  d4:	60 e0       	ldi	r22, 0x00	; 0
  d6:	81 e0       	ldi	r24, 0x01	; 1
  d8:	0e 94 52 03 	call	0x6a4	; 0x6a4 <LCD_voidGotoXY>
		LCD_voidSendNumber(hours);
  dc:	61 2f       	mov	r22, r17
  de:	70 e0       	ldi	r23, 0x00	; 0
  e0:	80 e0       	ldi	r24, 0x00	; 0
  e2:	90 e0       	ldi	r25, 0x00	; 0
  e4:	0e 94 c7 02 	call	0x58e	; 0x58e <LCD_voidSendNumber>
		LCD_voidGotoXY(2,0);
  e8:	60 e0       	ldi	r22, 0x00	; 0
  ea:	82 e0       	ldi	r24, 0x02	; 2
  ec:	0e 94 52 03 	call	0x6a4	; 0x6a4 <LCD_voidGotoXY>
		LCD_voidstring(":");
  f0:	80 e6       	ldi	r24, 0x60	; 96
  f2:	90 e0       	ldi	r25, 0x00	; 0
  f4:	0e 94 b4 02 	call	0x568	; 0x568 <LCD_voidstring>
  f8:	2f c0       	rjmp	.+94     	; 0x158 <alarm_display+0xc6>
	}
	else if(hours >= 10)
  fa:	1a 30       	cpi	r17, 0x0A	; 10
  fc:	98 f0       	brcs	.+38     	; 0x124 <alarm_display+0x92>
	{
			LCD_voidGotoXY(0,0);
  fe:	60 e0       	ldi	r22, 0x00	; 0
 100:	80 e0       	ldi	r24, 0x00	; 0
 102:	0e 94 52 03 	call	0x6a4	; 0x6a4 <LCD_voidGotoXY>
			LCD_voidSendNumber(hours);
 106:	61 2f       	mov	r22, r17
 108:	70 e0       	ldi	r23, 0x00	; 0
 10a:	80 e0       	ldi	r24, 0x00	; 0
 10c:	90 e0       	ldi	r25, 0x00	; 0
 10e:	0e 94 c7 02 	call	0x58e	; 0x58e <LCD_voidSendNumber>
			LCD_voidGotoXY(2,0);
 112:	60 e0       	ldi	r22, 0x00	; 0
 114:	82 e0       	ldi	r24, 0x02	; 2
 116:	0e 94 52 03 	call	0x6a4	; 0x6a4 <LCD_voidGotoXY>
			LCD_voidstring(":");
 11a:	80 e6       	ldi	r24, 0x60	; 96
 11c:	90 e0       	ldi	r25, 0x00	; 0
 11e:	0e 94 b4 02 	call	0x568	; 0x568 <LCD_voidstring>
 122:	1a c0       	rjmp	.+52     	; 0x158 <alarm_display+0xc6>
	}
	else 
	{
			LCD_voidGotoXY(0,0);
 124:	60 e0       	ldi	r22, 0x00	; 0
 126:	80 e0       	ldi	r24, 0x00	; 0
 128:	0e 94 52 03 	call	0x6a4	; 0x6a4 <LCD_voidGotoXY>
			LCD_voidSendNumber(0);
 12c:	60 e0       	ldi	r22, 0x00	; 0
 12e:	70 e0       	ldi	r23, 0x00	; 0
 130:	cb 01       	movw	r24, r22
 132:	0e 94 c7 02 	call	0x58e	; 0x58e <LCD_voidSendNumber>
			LCD_voidGotoXY(1,0);
 136:	60 e0       	ldi	r22, 0x00	; 0
 138:	81 e0       	ldi	r24, 0x01	; 1
 13a:	0e 94 52 03 	call	0x6a4	; 0x6a4 <LCD_voidGotoXY>
			LCD_voidSendNumber(0);
 13e:	60 e0       	ldi	r22, 0x00	; 0
 140:	70 e0       	ldi	r23, 0x00	; 0
 142:	cb 01       	movw	r24, r22
 144:	0e 94 c7 02 	call	0x58e	; 0x58e <LCD_voidSendNumber>
			LCD_voidGotoXY(2,0);
 148:	60 e0       	ldi	r22, 0x00	; 0
 14a:	82 e0       	ldi	r24, 0x02	; 2
 14c:	0e 94 52 03 	call	0x6a4	; 0x6a4 <LCD_voidGotoXY>
			LCD_voidstring(":");
 150:	80 e6       	ldi	r24, 0x60	; 96
 152:	90 e0       	ldi	r25, 0x00	; 0
 154:	0e 94 b4 02 	call	0x568	; 0x568 <LCD_voidstring>
	}
	
	/*Minutes Display*/
	if(minutes < 10 && minutes > 0)
 158:	8f ef       	ldi	r24, 0xFF	; 255
 15a:	8d 0f       	add	r24, r29
 15c:	89 30       	cpi	r24, 0x09	; 9
 15e:	e0 f4       	brcc	.+56     	; 0x198 <alarm_display+0x106>
	{
		LCD_voidGotoXY(3,0);
 160:	60 e0       	ldi	r22, 0x00	; 0
 162:	83 e0       	ldi	r24, 0x03	; 3
 164:	0e 94 52 03 	call	0x6a4	; 0x6a4 <LCD_voidGotoXY>
		LCD_voidSendNumber(0);
 168:	60 e0       	ldi	r22, 0x00	; 0
 16a:	70 e0       	ldi	r23, 0x00	; 0
 16c:	cb 01       	movw	r24, r22
 16e:	0e 94 c7 02 	call	0x58e	; 0x58e <LCD_voidSendNumber>
		LCD_voidGotoXY(4,0);
 172:	60 e0       	ldi	r22, 0x00	; 0
 174:	84 e0       	ldi	r24, 0x04	; 4
 176:	0e 94 52 03 	call	0x6a4	; 0x6a4 <LCD_voidGotoXY>
		LCD_voidSendNumber(minutes);
 17a:	6d 2f       	mov	r22, r29
 17c:	70 e0       	ldi	r23, 0x00	; 0
 17e:	80 e0       	ldi	r24, 0x00	; 0
 180:	90 e0       	ldi	r25, 0x00	; 0
 182:	0e 94 c7 02 	call	0x58e	; 0x58e <LCD_voidSendNumber>
		LCD_voidGotoXY(5,0);
 186:	60 e0       	ldi	r22, 0x00	; 0
 188:	85 e0       	ldi	r24, 0x05	; 5
 18a:	0e 94 52 03 	call	0x6a4	; 0x6a4 <LCD_voidGotoXY>
		LCD_voidstring(":");
 18e:	80 e6       	ldi	r24, 0x60	; 96
 190:	90 e0       	ldi	r25, 0x00	; 0
 192:	0e 94 b4 02 	call	0x568	; 0x568 <LCD_voidstring>
 196:	2f c0       	rjmp	.+94     	; 0x1f6 <alarm_display+0x164>
	}
	else if(minutes >= 10)
 198:	da 30       	cpi	r29, 0x0A	; 10
 19a:	98 f0       	brcs	.+38     	; 0x1c2 <alarm_display+0x130>
	{
		LCD_voidGotoXY(3,0);
 19c:	60 e0       	ldi	r22, 0x00	; 0
 19e:	83 e0       	ldi	r24, 0x03	; 3
 1a0:	0e 94 52 03 	call	0x6a4	; 0x6a4 <LCD_voidGotoXY>
		LCD_voidSendNumber(minutes);
 1a4:	6d 2f       	mov	r22, r29
 1a6:	70 e0       	ldi	r23, 0x00	; 0
 1a8:	80 e0       	ldi	r24, 0x00	; 0
 1aa:	90 e0       	ldi	r25, 0x00	; 0
 1ac:	0e 94 c7 02 	call	0x58e	; 0x58e <LCD_voidSendNumber>
		LCD_voidGotoXY(5,0);
 1b0:	60 e0       	ldi	r22, 0x00	; 0
 1b2:	85 e0       	ldi	r24, 0x05	; 5
 1b4:	0e 94 52 03 	call	0x6a4	; 0x6a4 <LCD_voidGotoXY>
		LCD_voidstring(":");
 1b8:	80 e6       	ldi	r24, 0x60	; 96
 1ba:	90 e0       	ldi	r25, 0x00	; 0
 1bc:	0e 94 b4 02 	call	0x568	; 0x568 <LCD_voidstring>
 1c0:	1a c0       	rjmp	.+52     	; 0x1f6 <alarm_display+0x164>
	}
	else
	{
		LCD_voidGotoXY(3,0);
 1c2:	60 e0       	ldi	r22, 0x00	; 0
 1c4:	83 e0       	ldi	r24, 0x03	; 3
 1c6:	0e 94 52 03 	call	0x6a4	; 0x6a4 <LCD_voidGotoXY>
		LCD_voidSendNumber(0);
 1ca:	60 e0       	ldi	r22, 0x00	; 0
 1cc:	70 e0       	ldi	r23, 0x00	; 0
 1ce:	cb 01       	movw	r24, r22
 1d0:	0e 94 c7 02 	call	0x58e	; 0x58e <LCD_voidSendNumber>
		LCD_voidGotoXY(4,0);
 1d4:	60 e0       	ldi	r22, 0x00	; 0
 1d6:	84 e0       	ldi	r24, 0x04	; 4
 1d8:	0e 94 52 03 	call	0x6a4	; 0x6a4 <LCD_voidGotoXY>
		LCD_voidSendNumber(0);
 1dc:	60 e0       	ldi	r22, 0x00	; 0
 1de:	70 e0       	ldi	r23, 0x00	; 0
 1e0:	cb 01       	movw	r24, r22
 1e2:	0e 94 c7 02 	call	0x58e	; 0x58e <LCD_voidSendNumber>
		LCD_voidGotoXY(5,0);
 1e6:	60 e0       	ldi	r22, 0x00	; 0
 1e8:	85 e0       	ldi	r24, 0x05	; 5
 1ea:	0e 94 52 03 	call	0x6a4	; 0x6a4 <LCD_voidGotoXY>
		LCD_voidstring(":");
 1ee:	80 e6       	ldi	r24, 0x60	; 96
 1f0:	90 e0       	ldi	r25, 0x00	; 0
 1f2:	0e 94 b4 02 	call	0x568	; 0x568 <LCD_voidstring>
	}
	
	/*Seconds Display*/
	if(seconds < 10 && seconds > 0)
 1f6:	8f ef       	ldi	r24, 0xFF	; 255
 1f8:	8c 0f       	add	r24, r28
 1fa:	89 30       	cpi	r24, 0x09	; 9
 1fc:	a0 f4       	brcc	.+40     	; 0x226 <alarm_display+0x194>
	{
		LCD_voidGotoXY(6,0);
 1fe:	60 e0       	ldi	r22, 0x00	; 0
 200:	86 e0       	ldi	r24, 0x06	; 6
 202:	0e 94 52 03 	call	0x6a4	; 0x6a4 <LCD_voidGotoXY>
		LCD_voidSendNumber(0);
 206:	60 e0       	ldi	r22, 0x00	; 0
 208:	70 e0       	ldi	r23, 0x00	; 0
 20a:	cb 01       	movw	r24, r22
 20c:	0e 94 c7 02 	call	0x58e	; 0x58e <LCD_voidSendNumber>
		LCD_voidGotoXY(7,0);
 210:	60 e0       	ldi	r22, 0x00	; 0
 212:	87 e0       	ldi	r24, 0x07	; 7
 214:	0e 94 52 03 	call	0x6a4	; 0x6a4 <LCD_voidGotoXY>
		LCD_voidSendNumber(seconds);
 218:	6c 2f       	mov	r22, r28
 21a:	70 e0       	ldi	r23, 0x00	; 0
 21c:	80 e0       	ldi	r24, 0x00	; 0
 21e:	90 e0       	ldi	r25, 0x00	; 0
 220:	0e 94 c7 02 	call	0x58e	; 0x58e <LCD_voidSendNumber>
 224:	1f c0       	rjmp	.+62     	; 0x264 <alarm_display+0x1d2>
	}
	else if(seconds >= 10)
 226:	ca 30       	cpi	r28, 0x0A	; 10
 228:	58 f0       	brcs	.+22     	; 0x240 <alarm_display+0x1ae>
	{
		LCD_voidGotoXY(6,0);
 22a:	60 e0       	ldi	r22, 0x00	; 0
 22c:	86 e0       	ldi	r24, 0x06	; 6
 22e:	0e 94 52 03 	call	0x6a4	; 0x6a4 <LCD_voidGotoXY>
		LCD_voidSendNumber(seconds);
 232:	6c 2f       	mov	r22, r28
 234:	70 e0       	ldi	r23, 0x00	; 0
 236:	80 e0       	ldi	r24, 0x00	; 0
 238:	90 e0       	ldi	r25, 0x00	; 0
 23a:	0e 94 c7 02 	call	0x58e	; 0x58e <LCD_voidSendNumber>
 23e:	12 c0       	rjmp	.+36     	; 0x264 <alarm_display+0x1d2>
	}
	else
	{
		LCD_voidGotoXY(6,0);
 240:	60 e0       	ldi	r22, 0x00	; 0
 242:	86 e0       	ldi	r24, 0x06	; 6
 244:	0e 94 52 03 	call	0x6a4	; 0x6a4 <LCD_voidGotoXY>
		LCD_voidSendNumber(0);
 248:	60 e0       	ldi	r22, 0x00	; 0
 24a:	70 e0       	ldi	r23, 0x00	; 0
 24c:	cb 01       	movw	r24, r22
 24e:	0e 94 c7 02 	call	0x58e	; 0x58e <LCD_voidSendNumber>
		LCD_voidGotoXY(7,0);
 252:	60 e0       	ldi	r22, 0x00	; 0
 254:	87 e0       	ldi	r24, 0x07	; 7
 256:	0e 94 52 03 	call	0x6a4	; 0x6a4 <LCD_voidGotoXY>
		LCD_voidSendNumber(0);
 25a:	60 e0       	ldi	r22, 0x00	; 0
 25c:	70 e0       	ldi	r23, 0x00	; 0
 25e:	cb 01       	movw	r24, r22
 260:	0e 94 c7 02 	call	0x58e	; 0x58e <LCD_voidSendNumber>
	}
 264:	df 91       	pop	r29
 266:	cf 91       	pop	r28
 268:	1f 91       	pop	r17
 26a:	08 95       	ret

0000026c <TIM0_app>:
void TIM0_app()
{
	static u16 count = 0 ;
 
	
	if(count == 0)
 26c:	80 91 62 00 	lds	r24, 0x0062	; 0x800062 <__data_end>
 270:	90 91 63 00 	lds	r25, 0x0063	; 0x800063 <__data_end+0x1>
 274:	89 2b       	or	r24, r25
 276:	31 f4       	brne	.+12     	; 0x284 <TIM0_app+0x18>
	{
     		alarm_display(Time1) ;
 278:	80 91 64 00 	lds	r24, 0x0064	; 0x800064 <Time1>
 27c:	90 91 65 00 	lds	r25, 0x0065	; 0x800065 <Time1+0x1>
 280:	0e 94 49 00 	call	0x92	; 0x92 <alarm_display>
	}
		count++ ;
 284:	40 91 62 00 	lds	r20, 0x0062	; 0x800062 <__data_end>
 288:	50 91 63 00 	lds	r21, 0x0063	; 0x800063 <__data_end+0x1>
 28c:	4f 5f       	subi	r20, 0xFF	; 255
 28e:	5f 4f       	sbci	r21, 0xFF	; 255
 290:	50 93 63 00 	sts	0x0063, r21	; 0x800063 <__data_end+0x1>
 294:	40 93 62 00 	sts	0x0062, r20	; 0x800062 <__data_end>
	
	if(count % 1000 == 0)
 298:	9a 01       	movw	r18, r20
 29a:	36 95       	lsr	r19
 29c:	27 95       	ror	r18
 29e:	36 95       	lsr	r19
 2a0:	27 95       	ror	r18
 2a2:	36 95       	lsr	r19
 2a4:	27 95       	ror	r18
 2a6:	a5 ec       	ldi	r26, 0xC5	; 197
 2a8:	b0 e2       	ldi	r27, 0x20	; 32
 2aa:	0e 94 a6 05 	call	0xb4c	; 0xb4c <__umulhisi3>
 2ae:	92 95       	swap	r25
 2b0:	82 95       	swap	r24
 2b2:	8f 70       	andi	r24, 0x0F	; 15
 2b4:	89 27       	eor	r24, r25
 2b6:	9f 70       	andi	r25, 0x0F	; 15
 2b8:	89 27       	eor	r24, r25
 2ba:	68 ee       	ldi	r22, 0xE8	; 232
 2bc:	73 e0       	ldi	r23, 0x03	; 3
 2be:	86 9f       	mul	r24, r22
 2c0:	90 01       	movw	r18, r0
 2c2:	87 9f       	mul	r24, r23
 2c4:	30 0d       	add	r19, r0
 2c6:	96 9f       	mul	r25, r22
 2c8:	30 0d       	add	r19, r0
 2ca:	11 24       	eor	r1, r1
 2cc:	42 17       	cp	r20, r18
 2ce:	53 07       	cpc	r21, r19
 2d0:	59 f4       	brne	.+22     	; 0x2e8 <TIM0_app+0x7c>
	{
		Time1-- ;
 2d2:	80 91 64 00 	lds	r24, 0x0064	; 0x800064 <Time1>
 2d6:	90 91 65 00 	lds	r25, 0x0065	; 0x800065 <Time1+0x1>
 2da:	01 97       	sbiw	r24, 0x01	; 1
 2dc:	90 93 65 00 	sts	0x0065, r25	; 0x800065 <Time1+0x1>
 2e0:	80 93 64 00 	sts	0x0064, r24	; 0x800064 <Time1>
		alarm_display(Time1) ;
 2e4:	0e 94 49 00 	call	0x92	; 0x92 <alarm_display>
	}
	if(count == (Time * 1000))
 2e8:	40 91 66 00 	lds	r20, 0x0066	; 0x800066 <Time>
 2ec:	50 91 67 00 	lds	r21, 0x0067	; 0x800067 <Time+0x1>
 2f0:	88 ee       	ldi	r24, 0xE8	; 232
 2f2:	93 e0       	ldi	r25, 0x03	; 3
 2f4:	48 9f       	mul	r20, r24
 2f6:	90 01       	movw	r18, r0
 2f8:	49 9f       	mul	r20, r25
 2fa:	30 0d       	add	r19, r0
 2fc:	58 9f       	mul	r21, r24
 2fe:	30 0d       	add	r19, r0
 300:	11 24       	eor	r1, r1
 302:	80 91 62 00 	lds	r24, 0x0062	; 0x800062 <__data_end>
 306:	90 91 63 00 	lds	r25, 0x0063	; 0x800063 <__data_end+0x1>
 30a:	28 17       	cp	r18, r24
 30c:	39 07       	cpc	r19, r25
 30e:	29 f4       	brne	.+10     	; 0x31a <TIM0_app+0xae>
	{
		while(1)
		{
		LED_voidon(DIO_PORTB,DIO_PIN0);
 310:	60 e0       	ldi	r22, 0x00	; 0
 312:	81 e0       	ldi	r24, 0x01	; 1
 314:	0e 94 5a 03 	call	0x6b4	; 0x6b4 <LED_voidon>
 318:	fb cf       	rjmp	.-10     	; 0x310 <TIM0_app+0xa4>
 31a:	08 95       	ret

0000031c <main>:
	f32 pir_value = 0; 
	//LCD_voidSendNumber(1);
	
	pass_word();*/
	
	DIO_voidSetPinDir(DIO_PORTD, DIO_PIN2, INPUT);
 31c:	40 e0       	ldi	r20, 0x00	; 0
 31e:	62 e0       	ldi	r22, 0x02	; 2
 320:	83 e0       	ldi	r24, 0x03	; 3
 322:	0e 94 90 03 	call	0x720	; 0x720 <DIO_voidSetPinDir>
	DIO_voidSetPinDir(DIO_PORTD, DIO_PIN3, INPUT);
 326:	40 e0       	ldi	r20, 0x00	; 0
 328:	63 e0       	ldi	r22, 0x03	; 3
 32a:	83 e0       	ldi	r24, 0x03	; 3
 32c:	0e 94 90 03 	call	0x720	; 0x720 <DIO_voidSetPinDir>
	DIO_voidSetPinDir(DIO_PORTD, DIO_PIN7, INPUT);
 330:	40 e0       	ldi	r20, 0x00	; 0
 332:	67 e0       	ldi	r22, 0x07	; 7
 334:	83 e0       	ldi	r24, 0x03	; 3
 336:	0e 94 90 03 	call	0x720	; 0x720 <DIO_voidSetPinDir>
	
	DIO_voidSetPinVal(DIO_PORTD, DIO_PIN2, HIGH);
 33a:	41 e0       	ldi	r20, 0x01	; 1
 33c:	62 e0       	ldi	r22, 0x02	; 2
 33e:	83 e0       	ldi	r24, 0x03	; 3
 340:	0e 94 00 04 	call	0x800	; 0x800 <DIO_voidSetPinVal>
	DIO_voidSetPinVal(DIO_PORTD, DIO_PIN3, HIGH);
 344:	41 e0       	ldi	r20, 0x01	; 1
 346:	63 e0       	ldi	r22, 0x03	; 3
 348:	83 e0       	ldi	r24, 0x03	; 3
 34a:	0e 94 00 04 	call	0x800	; 0x800 <DIO_voidSetPinVal>
	DIO_voidSetPinVal(DIO_PORTD, DIO_PIN7, HIGH);
 34e:	41 e0       	ldi	r20, 0x01	; 1
 350:	67 e0       	ldi	r22, 0x07	; 7
 352:	83 e0       	ldi	r24, 0x03	; 3
 354:	0e 94 00 04 	call	0x800	; 0x800 <DIO_voidSetPinVal>
	
	DIO_voidSetPortDir(DIO_PORTA,0xF0);
 358:	60 ef       	ldi	r22, 0xF0	; 240
 35a:	80 e0       	ldi	r24, 0x00	; 0
 35c:	0e 94 9e 04 	call	0x93c	; 0x93c <DIO_voidSetPortDir>
	DIO_voidSetPortDir(DIO_PORTB,0x06);
 360:	66 e0       	ldi	r22, 0x06	; 6
 362:	81 e0       	ldi	r24, 0x01	; 1
 364:	0e 94 9e 04 	call	0x93c	; 0x93c <DIO_voidSetPortDir>
	LCD_voidInit();
 368:	0e 94 7b 02 	call	0x4f6	; 0x4f6 <LCD_voidInit>
	
	
	
	alarm_display(Time1);
 36c:	80 91 64 00 	lds	r24, 0x0064	; 0x800064 <Time1>
 370:	90 91 65 00 	lds	r25, 0x0065	; 0x800065 <Time1+0x1>
 374:	0e 94 49 00 	call	0x92	; 0x92 <alarm_display>
	
	while(DIO_u8ReadPinVal(DIO_PORTD, DIO_PIN7) == 1 || Time == 0)
 378:	48 c0       	rjmp	.+144    	; 0x40a <__EEPROM_REGION_LENGTH__+0xa>
	{
			if(DIO_u8ReadPinVal(DIO_PORTD, DIO_PIN2) == 0)
 37a:	62 e0       	ldi	r22, 0x02	; 2
 37c:	83 e0       	ldi	r24, 0x03	; 3
 37e:	0e 94 70 04 	call	0x8e0	; 0x8e0 <DIO_u8ReadPinVal>
 382:	81 11       	cpse	r24, r1
 384:	1b c0       	rjmp	.+54     	; 0x3bc <main+0xa0>
			{
				while(DIO_u8ReadPinVal(DIO_PORTD, DIO_PIN2) == 0) ;
 386:	62 e0       	ldi	r22, 0x02	; 2
 388:	83 e0       	ldi	r24, 0x03	; 3
 38a:	0e 94 70 04 	call	0x8e0	; 0x8e0 <DIO_u8ReadPinVal>
 38e:	88 23       	and	r24, r24
 390:	d1 f3       	breq	.-12     	; 0x386 <main+0x6a>
				
				Time += 30 ;
 392:	80 91 66 00 	lds	r24, 0x0066	; 0x800066 <Time>
 396:	90 91 67 00 	lds	r25, 0x0067	; 0x800067 <Time+0x1>
 39a:	4e 96       	adiw	r24, 0x1e	; 30
 39c:	90 93 67 00 	sts	0x0067, r25	; 0x800067 <Time+0x1>
 3a0:	80 93 66 00 	sts	0x0066, r24	; 0x800066 <Time>
				Time1 += 30 ;
 3a4:	80 91 64 00 	lds	r24, 0x0064	; 0x800064 <Time1>
 3a8:	90 91 65 00 	lds	r25, 0x0065	; 0x800065 <Time1+0x1>
 3ac:	4e 96       	adiw	r24, 0x1e	; 30
 3ae:	90 93 65 00 	sts	0x0065, r25	; 0x800065 <Time1+0x1>
 3b2:	80 93 64 00 	sts	0x0064, r24	; 0x800064 <Time1>
				
				alarm_display(Time1);
 3b6:	0e 94 49 00 	call	0x92	; 0x92 <alarm_display>
 3ba:	27 c0       	rjmp	.+78     	; 0x40a <__EEPROM_REGION_LENGTH__+0xa>
			}
			else if(DIO_u8ReadPinVal(DIO_PORTD, DIO_PIN3) == 0)
 3bc:	63 e0       	ldi	r22, 0x03	; 3
 3be:	83 e0       	ldi	r24, 0x03	; 3
 3c0:	0e 94 70 04 	call	0x8e0	; 0x8e0 <DIO_u8ReadPinVal>
 3c4:	81 11       	cpse	r24, r1
 3c6:	21 c0       	rjmp	.+66     	; 0x40a <__EEPROM_REGION_LENGTH__+0xa>
			{
				while(DIO_u8ReadPinVal(DIO_PORTD, DIO_PIN3) == 0);
 3c8:	63 e0       	ldi	r22, 0x03	; 3
 3ca:	83 e0       	ldi	r24, 0x03	; 3
 3cc:	0e 94 70 04 	call	0x8e0	; 0x8e0 <DIO_u8ReadPinVal>
 3d0:	88 23       	and	r24, r24
 3d2:	d1 f3       	breq	.-12     	; 0x3c8 <main+0xac>
				if(Time >= 30)
 3d4:	80 91 66 00 	lds	r24, 0x0066	; 0x800066 <Time>
 3d8:	90 91 67 00 	lds	r25, 0x0067	; 0x800067 <Time+0x1>
 3dc:	8e 31       	cpi	r24, 0x1E	; 30
 3de:	91 05       	cpc	r25, r1
 3e0:	70 f0       	brcs	.+28     	; 0x3fe <main+0xe2>
				{
					Time -= 30 ;
 3e2:	4e 97       	sbiw	r24, 0x1e	; 30
 3e4:	90 93 67 00 	sts	0x0067, r25	; 0x800067 <Time+0x1>
 3e8:	80 93 66 00 	sts	0x0066, r24	; 0x800066 <Time>
					Time1 -= 30 ;
 3ec:	80 91 64 00 	lds	r24, 0x0064	; 0x800064 <Time1>
 3f0:	90 91 65 00 	lds	r25, 0x0065	; 0x800065 <Time1+0x1>
 3f4:	4e 97       	sbiw	r24, 0x1e	; 30
 3f6:	90 93 65 00 	sts	0x0065, r25	; 0x800065 <Time1+0x1>
 3fa:	80 93 64 00 	sts	0x0064, r24	; 0x800064 <Time1>
			
				}
				alarm_display(Time1);
 3fe:	80 91 64 00 	lds	r24, 0x0064	; 0x800064 <Time1>
 402:	90 91 65 00 	lds	r25, 0x0065	; 0x800065 <Time1+0x1>
 406:	0e 94 49 00 	call	0x92	; 0x92 <alarm_display>
	
	
	
	alarm_display(Time1);
	
	while(DIO_u8ReadPinVal(DIO_PORTD, DIO_PIN7) == 1 || Time == 0)
 40a:	67 e0       	ldi	r22, 0x07	; 7
 40c:	83 e0       	ldi	r24, 0x03	; 3
 40e:	0e 94 70 04 	call	0x8e0	; 0x8e0 <DIO_u8ReadPinVal>
 412:	81 30       	cpi	r24, 0x01	; 1
 414:	09 f4       	brne	.+2      	; 0x418 <__EEPROM_REGION_LENGTH__+0x18>
 416:	b1 cf       	rjmp	.-158    	; 0x37a <main+0x5e>
 418:	80 91 66 00 	lds	r24, 0x0066	; 0x800066 <Time>
 41c:	90 91 67 00 	lds	r25, 0x0067	; 0x800067 <Time+0x1>
 420:	89 2b       	or	r24, r25
 422:	09 f4       	brne	.+2      	; 0x426 <__EEPROM_REGION_LENGTH__+0x26>
 424:	aa cf       	rjmp	.-172    	; 0x37a <main+0x5e>
				}
				alarm_display(Time1);
			}
	}
	
		GI_voidEnable();
 426:	0e 94 23 05 	call	0xa46	; 0xa46 <GI_voidEnable>
		TIM0_voidInit(CTC_MODE);
 42a:	81 e0       	ldi	r24, 0x01	; 1
 42c:	0e 94 27 05 	call	0xa4e	; 0xa4e <TIM0_voidInit>
		TIM0_voidSetCallBack(TIM0_app, CTC_MODE);
 430:	61 e0       	ldi	r22, 0x01	; 1
 432:	86 e3       	ldi	r24, 0x36	; 54
 434:	91 e0       	ldi	r25, 0x01	; 1
 436:	0e 94 4e 05 	call	0xa9c	; 0xa9c <TIM0_voidSetCallBack>
 43a:	ff cf       	rjmp	.-2      	; 0x43a <__EEPROM_REGION_LENGTH__+0x3a>

0000043c <LCD_voidSHD>:
#define F_CPU 16000000UL
#include <util/delay.h>


static void LCD_voidSHD(u8 copy_u8data)
{
 43c:	0f 93       	push	r16
 43e:	1f 93       	push	r17
 440:	cf 93       	push	r28
 442:	df 93       	push	r29
 444:	00 d0       	rcall	.+0      	; 0x446 <LCD_voidSHD+0xa>
 446:	00 d0       	rcall	.+0      	; 0x448 <LCD_voidSHD+0xc>
 448:	cd b7       	in	r28, 0x3d	; 61
 44a:	de b7       	in	r29, 0x3e	; 62
 44c:	08 2f       	mov	r16, r24
	u8 lcd_pins[4] = {LCD_D4_PIN, LCD_D5_PIN, LCD_D6_PIN, LCD_D7_PIN};
 44e:	84 e0       	ldi	r24, 0x04	; 4
 450:	89 83       	std	Y+1, r24	; 0x01
 452:	85 e0       	ldi	r24, 0x05	; 5
 454:	8a 83       	std	Y+2, r24	; 0x02
 456:	86 e0       	ldi	r24, 0x06	; 6
 458:	8b 83       	std	Y+3, r24	; 0x03
 45a:	87 e0       	ldi	r24, 0x07	; 7
 45c:	8c 83       	std	Y+4, r24	; 0x04
		
		u8 loc_in = 0;
		
		for (loc_in = 0; loc_in < 4; loc_in++)
 45e:	10 e0       	ldi	r17, 0x00	; 0
 460:	14 c0       	rjmp	.+40     	; 0x48a <LCD_voidSHD+0x4e>
		{
			DIO_voidSetPinVal(LCD_DPORT,lcd_pins[loc_in], GET_BIT(copy_u8data,loc_in));
 462:	40 2f       	mov	r20, r16
 464:	50 e0       	ldi	r21, 0x00	; 0
 466:	01 2e       	mov	r0, r17
 468:	02 c0       	rjmp	.+4      	; 0x46e <LCD_voidSHD+0x32>
 46a:	55 95       	asr	r21
 46c:	47 95       	ror	r20
 46e:	0a 94       	dec	r0
 470:	e2 f7       	brpl	.-8      	; 0x46a <LCD_voidSHD+0x2e>
 472:	41 70       	andi	r20, 0x01	; 1
 474:	e1 e0       	ldi	r30, 0x01	; 1
 476:	f0 e0       	ldi	r31, 0x00	; 0
 478:	ec 0f       	add	r30, r28
 47a:	fd 1f       	adc	r31, r29
 47c:	e1 0f       	add	r30, r17
 47e:	f1 1d       	adc	r31, r1
 480:	60 81       	ld	r22, Z
 482:	80 e0       	ldi	r24, 0x00	; 0
 484:	0e 94 00 04 	call	0x800	; 0x800 <DIO_voidSetPinVal>
{
	u8 lcd_pins[4] = {LCD_D4_PIN, LCD_D5_PIN, LCD_D6_PIN, LCD_D7_PIN};
		
		u8 loc_in = 0;
		
		for (loc_in = 0; loc_in < 4; loc_in++)
 488:	1f 5f       	subi	r17, 0xFF	; 255
 48a:	14 30       	cpi	r17, 0x04	; 4
 48c:	50 f3       	brcs	.-44     	; 0x462 <LCD_voidSHD+0x26>
		{
			DIO_voidSetPinVal(LCD_DPORT,lcd_pins[loc_in], GET_BIT(copy_u8data,loc_in));
		}
}
 48e:	0f 90       	pop	r0
 490:	0f 90       	pop	r0
 492:	0f 90       	pop	r0
 494:	0f 90       	pop	r0
 496:	df 91       	pop	r29
 498:	cf 91       	pop	r28
 49a:	1f 91       	pop	r17
 49c:	0f 91       	pop	r16
 49e:	08 95       	ret

000004a0 <LCD_voidSendEnablePulse>:

static void LCD_voidSendEnablePulse()
{
	DIO_voidSetPinVal(LCD_CPORT, LCD_E_PIN, HIGH);
 4a0:	41 e0       	ldi	r20, 0x01	; 1
 4a2:	62 e0       	ldi	r22, 0x02	; 2
 4a4:	81 e0       	ldi	r24, 0x01	; 1
 4a6:	0e 94 00 04 	call	0x800	; 0x800 <DIO_voidSetPinVal>
	#else
		//round up by default
		__ticks_dc = (uint32_t)(ceil(fabs(__tmp)));
	#endif

	__builtin_avr_delay_cycles(__ticks_dc);
 4aa:	8f e3       	ldi	r24, 0x3F	; 63
 4ac:	9f e1       	ldi	r25, 0x1F	; 31
 4ae:	01 97       	sbiw	r24, 0x01	; 1
 4b0:	f1 f7       	brne	.-4      	; 0x4ae <LCD_voidSendEnablePulse+0xe>
 4b2:	00 c0       	rjmp	.+0      	; 0x4b4 <LCD_voidSendEnablePulse+0x14>
 4b4:	00 00       	nop
	_delay_ms(2);
	DIO_voidSetPinVal(LCD_CPORT, LCD_E_PIN, LOW);
 4b6:	40 e0       	ldi	r20, 0x00	; 0
 4b8:	62 e0       	ldi	r22, 0x02	; 2
 4ba:	81 e0       	ldi	r24, 0x01	; 1
 4bc:	0e 94 00 04 	call	0x800	; 0x800 <DIO_voidSetPinVal>
 4c0:	08 95       	ret

000004c2 <LCD_voidSendCommand>:
	
	
}

void LCD_voidSendCommand(u8 copy_u8command)
{
 4c2:	cf 93       	push	r28
 4c4:	c8 2f       	mov	r28, r24

	/*set RS ---> 0 for command*/
	DIO_voidSetPinVal(LCD_CPORT, LCD_RS_PIN, LOW);
 4c6:	40 e0       	ldi	r20, 0x00	; 0
 4c8:	61 e0       	ldi	r22, 0x01	; 1
 4ca:	81 e0       	ldi	r24, 0x01	; 1
 4cc:	0e 94 00 04 	call	0x800	; 0x800 <DIO_voidSetPinVal>
	
	/*SET RW*/
	DIO_voidSetPinVal(LCD_CPORT, LCD_RW_PIN, LOW);
 4d0:	40 e0       	ldi	r20, 0x00	; 0
 4d2:	60 e0       	ldi	r22, 0x00	; 0
 4d4:	81 e0       	ldi	r24, 0x01	; 1
 4d6:	0e 94 00 04 	call	0x800	; 0x800 <DIO_voidSetPinVal>
	/*send command*/
	#if LCD_MODE == LCD_8_BIT
	DIO_voidSetPortVal(LCD_DPORT,copy_u8command);
	LCD_voidSendEnablePulse();
	#elif LCD_MODE == LCD_4_BIT
	LCD_voidSHD(copy_u8command >> 4);
 4da:	8c 2f       	mov	r24, r28
 4dc:	82 95       	swap	r24
 4de:	8f 70       	andi	r24, 0x0F	; 15
 4e0:	0e 94 1e 02 	call	0x43c	; 0x43c <LCD_voidSHD>
	LCD_voidSendEnablePulse();
 4e4:	0e 94 50 02 	call	0x4a0	; 0x4a0 <LCD_voidSendEnablePulse>
	LCD_voidSHD(copy_u8command);
 4e8:	8c 2f       	mov	r24, r28
 4ea:	0e 94 1e 02 	call	0x43c	; 0x43c <LCD_voidSHD>
	LCD_voidSendEnablePulse();
 4ee:	0e 94 50 02 	call	0x4a0	; 0x4a0 <LCD_voidSendEnablePulse>
	
	
	//DIO_voidSetPinVal(LCD_CPORT, LCD_E_PIN, HIGH);
	//_delay_ms(2);
	//DIO_voidSetPinVal(LCD_CPORT, LCD_E_PIN, LOW);	
}
 4f2:	cf 91       	pop	r28
 4f4:	08 95       	ret

000004f6 <LCD_voidInit>:
 4f6:	2f ef       	ldi	r18, 0xFF	; 255
 4f8:	83 ef       	ldi	r24, 0xF3	; 243
 4fa:	91 e0       	ldi	r25, 0x01	; 1
 4fc:	21 50       	subi	r18, 0x01	; 1
 4fe:	80 40       	sbci	r24, 0x00	; 0
 500:	90 40       	sbci	r25, 0x00	; 0
 502:	e1 f7       	brne	.-8      	; 0x4fc <LCD_voidInit+0x6>
 504:	00 c0       	rjmp	.+0      	; 0x506 <LCD_voidInit+0x10>
 506:	00 00       	nop
	#if LCD_MODE == LCD_8_BIT
	LCD_voidSendCommand(0x38);
	_delay_us(45);
	
	#elif LCD_MODE == LCD_4_BIT
	LCD_voidSHD(0b0010);
 508:	82 e0       	ldi	r24, 0x02	; 2
 50a:	0e 94 1e 02 	call	0x43c	; 0x43c <LCD_voidSHD>
	LCD_voidSendEnablePulse();
 50e:	0e 94 50 02 	call	0x4a0	; 0x4a0 <LCD_voidSendEnablePulse>
	LCD_voidSHD(0b0010);
 512:	82 e0       	ldi	r24, 0x02	; 2
 514:	0e 94 1e 02 	call	0x43c	; 0x43c <LCD_voidSHD>
	LCD_voidSendEnablePulse();
 518:	0e 94 50 02 	call	0x4a0	; 0x4a0 <LCD_voidSendEnablePulse>
	LCD_voidSHD(0b1000);
 51c:	88 e0       	ldi	r24, 0x08	; 8
 51e:	0e 94 1e 02 	call	0x43c	; 0x43c <LCD_voidSHD>
	LCD_voidSendEnablePulse();
 522:	0e 94 50 02 	call	0x4a0	; 0x4a0 <LCD_voidSendEnablePulse>
	#endif
	
	/*send Display on / off*/
	LCD_voidSendCommand(0x0C);
 526:	8c e0       	ldi	r24, 0x0C	; 12
 528:	0e 94 61 02 	call	0x4c2	; 0x4c2 <LCD_voidSendCommand>
	
	/*LCD CLR*/
	LCD_voidSendCommand(1);
 52c:	81 e0       	ldi	r24, 0x01	; 1
 52e:	0e 94 61 02 	call	0x4c2	; 0x4c2 <LCD_voidSendCommand>
 532:	08 95       	ret

00000534 <LCD_voidSendData>:
	//_delay_ms(2);
	//DIO_voidSetPinVal(LCD_CPORT, LCD_E_PIN, LOW);	
}

void LCD_voidSendData(u8 copy_u8data)
{
 534:	cf 93       	push	r28
 536:	c8 2f       	mov	r28, r24
	/*set RS ---> 1 for data*/
	DIO_voidSetPinVal(LCD_CPORT, LCD_RS_PIN, HIGH);
 538:	41 e0       	ldi	r20, 0x01	; 1
 53a:	61 e0       	ldi	r22, 0x01	; 1
 53c:	81 e0       	ldi	r24, 0x01	; 1
 53e:	0e 94 00 04 	call	0x800	; 0x800 <DIO_voidSetPinVal>
	
	/*SET RW*/
	DIO_voidSetPinVal(LCD_CPORT, LCD_RW_PIN, LOW);
 542:	40 e0       	ldi	r20, 0x00	; 0
 544:	60 e0       	ldi	r22, 0x00	; 0
 546:	81 e0       	ldi	r24, 0x01	; 1
 548:	0e 94 00 04 	call	0x800	; 0x800 <DIO_voidSetPinVal>
	/*send data*/
	#if LCD_MODE == LCD_8_BIT
	DIO_voidSetPortVal(LCD_DPORT,copy_u8data);
	LCD_voidSendEnablePulse();
	#elif LCD_MODE == LCD_4_BIT
	LCD_voidSHD(copy_u8data >> 4);
 54c:	8c 2f       	mov	r24, r28
 54e:	82 95       	swap	r24
 550:	8f 70       	andi	r24, 0x0F	; 15
 552:	0e 94 1e 02 	call	0x43c	; 0x43c <LCD_voidSHD>
	LCD_voidSendEnablePulse();
 556:	0e 94 50 02 	call	0x4a0	; 0x4a0 <LCD_voidSendEnablePulse>
	LCD_voidSHD(copy_u8data);
 55a:	8c 2f       	mov	r24, r28
 55c:	0e 94 1e 02 	call	0x43c	; 0x43c <LCD_voidSHD>
	LCD_voidSendEnablePulse();
 560:	0e 94 50 02 	call	0x4a0	; 0x4a0 <LCD_voidSendEnablePulse>
	
		//DIO_voidSetPinVal(LCD_CPORT, LCD_E_PIN, HIGH);
		//_delay_ms(2);
		//DIO_voidSetPinVal(LCD_CPORT, LCD_E_PIN, LOW);
	
}
 564:	cf 91       	pop	r28
 566:	08 95       	ret

00000568 <LCD_voidstring>:

void LCD_voidstring(char* S)
{
 568:	0f 93       	push	r16
 56a:	1f 93       	push	r17
 56c:	cf 93       	push	r28
 56e:	8c 01       	movw	r16, r24
	u8 i = 0;
 570:	c0 e0       	ldi	r28, 0x00	; 0
	while (S[i] != '\0')
 572:	03 c0       	rjmp	.+6      	; 0x57a <LCD_voidstring+0x12>
	{
		LCD_voidSendData(S[i]);
 574:	0e 94 9a 02 	call	0x534	; 0x534 <LCD_voidSendData>
		
		i++;
 578:	cf 5f       	subi	r28, 0xFF	; 255
}

void LCD_voidstring(char* S)
{
	u8 i = 0;
	while (S[i] != '\0')
 57a:	f8 01       	movw	r30, r16
 57c:	ec 0f       	add	r30, r28
 57e:	f1 1d       	adc	r31, r1
 580:	80 81       	ld	r24, Z
 582:	81 11       	cpse	r24, r1
 584:	f7 cf       	rjmp	.-18     	; 0x574 <LCD_voidstring+0xc>
		LCD_voidSendData(S[i]);
		
		i++;
	}
	
}
 586:	cf 91       	pop	r28
 588:	1f 91       	pop	r17
 58a:	0f 91       	pop	r16
 58c:	08 95       	ret

0000058e <LCD_voidSendNumber>:

void LCD_voidSendNumber(u32 Number)
{
 58e:	6f 92       	push	r6
 590:	7f 92       	push	r7
 592:	8f 92       	push	r8
 594:	9f 92       	push	r9
 596:	af 92       	push	r10
 598:	bf 92       	push	r11
 59a:	cf 92       	push	r12
 59c:	df 92       	push	r13
 59e:	ef 92       	push	r14
 5a0:	ff 92       	push	r15
 5a2:	0f 93       	push	r16
 5a4:	1f 93       	push	r17
 5a6:	cf 93       	push	r28
 5a8:	df 93       	push	r29
 5aa:	cd b7       	in	r28, 0x3d	; 61
 5ac:	de b7       	in	r29, 0x3e	; 62
 5ae:	96 2e       	mov	r9, r22
 5b0:	87 2e       	mov	r8, r23
 5b2:	78 2e       	mov	r7, r24
 5b4:	69 2e       	mov	r6, r25
	else
	{
		LCD_voidSendData('0');
	}
	
}
 5b6:	cd b6       	in	r12, 0x3d	; 61
 5b8:	de b6       	in	r13, 0x3e	; 62
}

void LCD_voidSendNumber(u32 Number)
{
	u8 count = 0;
	u32 copy_Number = Number;
 5ba:	26 2f       	mov	r18, r22
 5bc:	37 2f       	mov	r19, r23
 5be:	48 2f       	mov	r20, r24
 5c0:	59 2f       	mov	r21, r25
	
}

void LCD_voidSendNumber(u32 Number)
{
	u8 count = 0;
 5c2:	a1 2c       	mov	r10, r1
	u32 copy_Number = Number;
	while (copy_Number != 0)
 5c4:	09 c0       	rjmp	.+18     	; 0x5d8 <LCD_voidSendNumber+0x4a>
	{
		copy_Number /= 10;
 5c6:	ca 01       	movw	r24, r20
 5c8:	b9 01       	movw	r22, r18
 5ca:	2a e0       	ldi	r18, 0x0A	; 10
 5cc:	30 e0       	ldi	r19, 0x00	; 0
 5ce:	40 e0       	ldi	r20, 0x00	; 0
 5d0:	50 e0       	ldi	r21, 0x00	; 0
 5d2:	0e 94 84 05 	call	0xb08	; 0xb08 <__udivmodsi4>
		count++ ;
 5d6:	a3 94       	inc	r10

void LCD_voidSendNumber(u32 Number)
{
	u8 count = 0;
	u32 copy_Number = Number;
	while (copy_Number != 0)
 5d8:	21 15       	cp	r18, r1
 5da:	31 05       	cpc	r19, r1
 5dc:	41 05       	cpc	r20, r1
 5de:	51 05       	cpc	r21, r1
 5e0:	91 f7       	brne	.-28     	; 0x5c6 <LCD_voidSendNumber+0x38>
	{
		copy_Number /= 10;
		count++ ;
		
	}
	u32 arr[count];
 5e2:	ea 2c       	mov	r14, r10
 5e4:	f1 2c       	mov	r15, r1
 5e6:	c7 01       	movw	r24, r14
 5e8:	88 0f       	add	r24, r24
 5ea:	99 1f       	adc	r25, r25
 5ec:	88 0f       	add	r24, r24
 5ee:	99 1f       	adc	r25, r25
 5f0:	2d b7       	in	r18, 0x3d	; 61
 5f2:	3e b7       	in	r19, 0x3e	; 62
 5f4:	28 1b       	sub	r18, r24
 5f6:	39 0b       	sbc	r19, r25
 5f8:	0f b6       	in	r0, 0x3f	; 63
 5fa:	f8 94       	cli
 5fc:	3e bf       	out	0x3e, r19	; 62
 5fe:	0f be       	out	0x3f, r0	; 63
 600:	2d bf       	out	0x3d, r18	; 61
 602:	0d b7       	in	r16, 0x3d	; 61
 604:	1e b7       	in	r17, 0x3e	; 62
 606:	0f 5f       	subi	r16, 0xFF	; 255
 608:	1f 4f       	sbci	r17, 0xFF	; 255
	
	for (u8 i = 0; i < count; i++)
 60a:	b1 2c       	mov	r11, r1
 60c:	1b c0       	rjmp	.+54     	; 0x644 <LCD_voidSendNumber+0xb6>
	{
		copy_Number = Number % 10;
 60e:	69 2d       	mov	r22, r9
 610:	78 2d       	mov	r23, r8
 612:	87 2d       	mov	r24, r7
 614:	96 2d       	mov	r25, r6
 616:	2a e0       	ldi	r18, 0x0A	; 10
 618:	30 e0       	ldi	r19, 0x00	; 0
 61a:	40 e0       	ldi	r20, 0x00	; 0
 61c:	50 e0       	ldi	r21, 0x00	; 0
 61e:	0e 94 84 05 	call	0xb08	; 0xb08 <__udivmodsi4>
		arr[i] = copy_Number;
 622:	eb 2d       	mov	r30, r11
 624:	f0 e0       	ldi	r31, 0x00	; 0
 626:	ee 0f       	add	r30, r30
 628:	ff 1f       	adc	r31, r31
 62a:	ee 0f       	add	r30, r30
 62c:	ff 1f       	adc	r31, r31
 62e:	e0 0f       	add	r30, r16
 630:	f1 1f       	adc	r31, r17
 632:	60 83       	st	Z, r22
 634:	71 83       	std	Z+1, r23	; 0x01
 636:	82 83       	std	Z+2, r24	; 0x02
 638:	93 83       	std	Z+3, r25	; 0x03
		Number /= 10;
 63a:	92 2e       	mov	r9, r18
 63c:	83 2e       	mov	r8, r19
 63e:	74 2e       	mov	r7, r20
 640:	65 2e       	mov	r6, r21
		count++ ;
		
	}
	u32 arr[count];
	
	for (u8 i = 0; i < count; i++)
 642:	b3 94       	inc	r11
 644:	ba 14       	cp	r11, r10
 646:	18 f3       	brcs	.-58     	; 0x60e <LCD_voidSendNumber+0x80>
	{
		copy_Number = Number % 10;
		arr[i] = copy_Number;
		Number /= 10;
	}
	if (count != 0)
 648:	a1 10       	cpse	r10, r1
 64a:	11 c0       	rjmp	.+34     	; 0x66e <LCD_voidSendNumber+0xe0>
 64c:	14 c0       	rjmp	.+40     	; 0x676 <LCD_voidSendNumber+0xe8>
	{
		for (u8 i = 0; i < count; i++)
		{
			LCD_voidSendData('0' + arr[count - i - 1]);
 64e:	f7 01       	movw	r30, r14
 650:	eb 19       	sub	r30, r11
 652:	f1 09       	sbc	r31, r1
 654:	31 97       	sbiw	r30, 0x01	; 1
 656:	ee 0f       	add	r30, r30
 658:	ff 1f       	adc	r31, r31
 65a:	ee 0f       	add	r30, r30
 65c:	ff 1f       	adc	r31, r31
 65e:	e0 0f       	add	r30, r16
 660:	f1 1f       	adc	r31, r17
 662:	80 81       	ld	r24, Z
 664:	80 5d       	subi	r24, 0xD0	; 208
 666:	0e 94 9a 02 	call	0x534	; 0x534 <LCD_voidSendData>
		arr[i] = copy_Number;
		Number /= 10;
	}
	if (count != 0)
	{
		for (u8 i = 0; i < count; i++)
 66a:	b3 94       	inc	r11
 66c:	01 c0       	rjmp	.+2      	; 0x670 <LCD_voidSendNumber+0xe2>
 66e:	b1 2c       	mov	r11, r1
 670:	ba 14       	cp	r11, r10
 672:	68 f3       	brcs	.-38     	; 0x64e <LCD_voidSendNumber+0xc0>
 674:	03 c0       	rjmp	.+6      	; 0x67c <LCD_voidSendNumber+0xee>
		}
		
	}
	else
	{
		LCD_voidSendData('0');
 676:	80 e3       	ldi	r24, 0x30	; 48
 678:	0e 94 9a 02 	call	0x534	; 0x534 <LCD_voidSendData>
	}
	
}
 67c:	0f b6       	in	r0, 0x3f	; 63
 67e:	f8 94       	cli
 680:	de be       	out	0x3e, r13	; 62
 682:	0f be       	out	0x3f, r0	; 63
 684:	cd be       	out	0x3d, r12	; 61
 686:	df 91       	pop	r29
 688:	cf 91       	pop	r28
 68a:	1f 91       	pop	r17
 68c:	0f 91       	pop	r16
 68e:	ff 90       	pop	r15
 690:	ef 90       	pop	r14
 692:	df 90       	pop	r13
 694:	cf 90       	pop	r12
 696:	bf 90       	pop	r11
 698:	af 90       	pop	r10
 69a:	9f 90       	pop	r9
 69c:	8f 90       	pop	r8
 69e:	7f 90       	pop	r7
 6a0:	6f 90       	pop	r6
 6a2:	08 95       	ret

000006a4 <LCD_voidGotoXY>:


void LCD_voidGotoXY(u8 copy_u8x, u8 copy_u8y)
{
	u8 DDRAM_address = 0;
	DDRAM_address = copy_u8x + 0x40 * copy_u8y;
 6a4:	90 e4       	ldi	r25, 0x40	; 64
 6a6:	69 9f       	mul	r22, r25
 6a8:	80 0d       	add	r24, r0
 6aa:	11 24       	eor	r1, r1
	
	SET_BIT(DDRAM_address,7);
	
	LCD_voidSendCommand(DDRAM_address);
 6ac:	80 68       	ori	r24, 0x80	; 128
 6ae:	0e 94 61 02 	call	0x4c2	; 0x4c2 <LCD_voidSendCommand>
 6b2:	08 95       	ret

000006b4 <LED_voidon>:
#include "../../LIB/STD_TYPE.h"
#include "../../MCAL/DIO/DIO_reg.h"
#include "../../MCAL/DIO/DIO_interface.h"

void LED_voidon(u8 copy_u8port, u8 copy_u8pin) 
{
 6b4:	cf 93       	push	r28
 6b6:	df 93       	push	r29
 6b8:	c8 2f       	mov	r28, r24
 6ba:	d6 2f       	mov	r29, r22
	DIO_voidSetPinDir(copy_u8port, copy_u8pin , OUTPUT) ;
 6bc:	41 e0       	ldi	r20, 0x01	; 1
 6be:	0e 94 90 03 	call	0x720	; 0x720 <DIO_voidSetPinDir>
	DIO_voidSetPinVal(copy_u8port, copy_u8pin , HIGH) ;
 6c2:	41 e0       	ldi	r20, 0x01	; 1
 6c4:	6d 2f       	mov	r22, r29
 6c6:	8c 2f       	mov	r24, r28
 6c8:	0e 94 00 04 	call	0x800	; 0x800 <DIO_voidSetPinVal>
	
}
 6cc:	df 91       	pop	r29
 6ce:	cf 91       	pop	r28
 6d0:	08 95       	ret

000006d2 <__vector_16>:
	ADC_PTR = ptr ;
}

void __vector_16(void)__attribute__((signal));
void __vector_16(void)
{
 6d2:	1f 92       	push	r1
 6d4:	0f 92       	push	r0
 6d6:	0f b6       	in	r0, 0x3f	; 63
 6d8:	0f 92       	push	r0
 6da:	11 24       	eor	r1, r1
 6dc:	2f 93       	push	r18
 6de:	3f 93       	push	r19
 6e0:	4f 93       	push	r20
 6e2:	5f 93       	push	r21
 6e4:	6f 93       	push	r22
 6e6:	7f 93       	push	r23
 6e8:	8f 93       	push	r24
 6ea:	9f 93       	push	r25
 6ec:	af 93       	push	r26
 6ee:	bf 93       	push	r27
 6f0:	ef 93       	push	r30
 6f2:	ff 93       	push	r31
	
	ADC_PTR() ;
 6f4:	e0 91 68 00 	lds	r30, 0x0068	; 0x800068 <ADC_PTR>
 6f8:	f0 91 69 00 	lds	r31, 0x0069	; 0x800069 <ADC_PTR+0x1>
 6fc:	09 95       	icall
	
 6fe:	ff 91       	pop	r31
 700:	ef 91       	pop	r30
 702:	bf 91       	pop	r27
 704:	af 91       	pop	r26
 706:	9f 91       	pop	r25
 708:	8f 91       	pop	r24
 70a:	7f 91       	pop	r23
 70c:	6f 91       	pop	r22
 70e:	5f 91       	pop	r21
 710:	4f 91       	pop	r20
 712:	3f 91       	pop	r19
 714:	2f 91       	pop	r18
 716:	0f 90       	pop	r0
 718:	0f be       	out	0x3f, r0	; 63
 71a:	0f 90       	pop	r0
 71c:	1f 90       	pop	r1
 71e:	18 95       	reti

00000720 <DIO_voidSetPinDir>:
	switch(copy_u8port){
		
				case DIO_PORTA: TOGGLE_BIT(PORTA_REG,copy_u8pin) ; break;
				case DIO_PORTB: TOGGLE_BIT(PORTB_REG,copy_u8pin) ; break;
				case DIO_PORTC: TOGGLE_BIT(PORTC_REG,copy_u8pin) ; break;
				case DIO_PORTD: TOGGLE_BIT(PORTD_REG,copy_u8pin) ; break;
 720:	41 30       	cpi	r20, 0x01	; 1
 722:	a1 f5       	brne	.+104    	; 0x78c <DIO_voidSetPinDir+0x6c>
 724:	81 30       	cpi	r24, 0x01	; 1
 726:	89 f0       	breq	.+34     	; 0x74a <DIO_voidSetPinDir+0x2a>
 728:	28 f0       	brcs	.+10     	; 0x734 <DIO_voidSetPinDir+0x14>
 72a:	82 30       	cpi	r24, 0x02	; 2
 72c:	c9 f0       	breq	.+50     	; 0x760 <DIO_voidSetPinDir+0x40>
 72e:	83 30       	cpi	r24, 0x03	; 3
 730:	11 f1       	breq	.+68     	; 0x776 <DIO_voidSetPinDir+0x56>
 732:	08 95       	ret
 734:	2a b3       	in	r18, 0x1a	; 26
 736:	81 e0       	ldi	r24, 0x01	; 1
 738:	90 e0       	ldi	r25, 0x00	; 0
 73a:	02 c0       	rjmp	.+4      	; 0x740 <DIO_voidSetPinDir+0x20>
 73c:	88 0f       	add	r24, r24
 73e:	99 1f       	adc	r25, r25
 740:	6a 95       	dec	r22
 742:	e2 f7       	brpl	.-8      	; 0x73c <DIO_voidSetPinDir+0x1c>
 744:	82 2b       	or	r24, r18
 746:	8a bb       	out	0x1a, r24	; 26
 748:	08 95       	ret
 74a:	27 b3       	in	r18, 0x17	; 23
 74c:	81 e0       	ldi	r24, 0x01	; 1
 74e:	90 e0       	ldi	r25, 0x00	; 0
 750:	02 c0       	rjmp	.+4      	; 0x756 <DIO_voidSetPinDir+0x36>
 752:	88 0f       	add	r24, r24
 754:	99 1f       	adc	r25, r25
 756:	6a 95       	dec	r22
 758:	e2 f7       	brpl	.-8      	; 0x752 <DIO_voidSetPinDir+0x32>
 75a:	82 2b       	or	r24, r18
 75c:	87 bb       	out	0x17, r24	; 23
 75e:	08 95       	ret
 760:	24 b3       	in	r18, 0x14	; 20
 762:	81 e0       	ldi	r24, 0x01	; 1
 764:	90 e0       	ldi	r25, 0x00	; 0
 766:	02 c0       	rjmp	.+4      	; 0x76c <DIO_voidSetPinDir+0x4c>
 768:	88 0f       	add	r24, r24
 76a:	99 1f       	adc	r25, r25
 76c:	6a 95       	dec	r22
 76e:	e2 f7       	brpl	.-8      	; 0x768 <DIO_voidSetPinDir+0x48>
 770:	82 2b       	or	r24, r18
 772:	84 bb       	out	0x14, r24	; 20
 774:	08 95       	ret
 776:	21 b3       	in	r18, 0x11	; 17
 778:	81 e0       	ldi	r24, 0x01	; 1
 77a:	90 e0       	ldi	r25, 0x00	; 0
 77c:	02 c0       	rjmp	.+4      	; 0x782 <DIO_voidSetPinDir+0x62>
 77e:	88 0f       	add	r24, r24
 780:	99 1f       	adc	r25, r25
 782:	6a 95       	dec	r22
 784:	e2 f7       	brpl	.-8      	; 0x77e <DIO_voidSetPinDir+0x5e>
 786:	82 2b       	or	r24, r18
 788:	81 bb       	out	0x11, r24	; 17
 78a:	08 95       	ret
 78c:	41 11       	cpse	r20, r1
 78e:	37 c0       	rjmp	.+110    	; 0x7fe <DIO_voidSetPinDir+0xde>
 790:	81 30       	cpi	r24, 0x01	; 1
 792:	91 f0       	breq	.+36     	; 0x7b8 <DIO_voidSetPinDir+0x98>
 794:	28 f0       	brcs	.+10     	; 0x7a0 <DIO_voidSetPinDir+0x80>
 796:	82 30       	cpi	r24, 0x02	; 2
 798:	d9 f0       	breq	.+54     	; 0x7d0 <DIO_voidSetPinDir+0xb0>
 79a:	83 30       	cpi	r24, 0x03	; 3
 79c:	29 f1       	breq	.+74     	; 0x7e8 <DIO_voidSetPinDir+0xc8>
 79e:	08 95       	ret
 7a0:	2a b3       	in	r18, 0x1a	; 26
 7a2:	81 e0       	ldi	r24, 0x01	; 1
 7a4:	90 e0       	ldi	r25, 0x00	; 0
 7a6:	02 c0       	rjmp	.+4      	; 0x7ac <DIO_voidSetPinDir+0x8c>
 7a8:	88 0f       	add	r24, r24
 7aa:	99 1f       	adc	r25, r25
 7ac:	6a 95       	dec	r22
 7ae:	e2 f7       	brpl	.-8      	; 0x7a8 <DIO_voidSetPinDir+0x88>
 7b0:	80 95       	com	r24
 7b2:	82 23       	and	r24, r18
 7b4:	8a bb       	out	0x1a, r24	; 26
 7b6:	08 95       	ret
 7b8:	27 b3       	in	r18, 0x17	; 23
 7ba:	81 e0       	ldi	r24, 0x01	; 1
 7bc:	90 e0       	ldi	r25, 0x00	; 0
 7be:	02 c0       	rjmp	.+4      	; 0x7c4 <DIO_voidSetPinDir+0xa4>
 7c0:	88 0f       	add	r24, r24
 7c2:	99 1f       	adc	r25, r25
 7c4:	6a 95       	dec	r22
 7c6:	e2 f7       	brpl	.-8      	; 0x7c0 <DIO_voidSetPinDir+0xa0>
 7c8:	80 95       	com	r24
 7ca:	82 23       	and	r24, r18
 7cc:	87 bb       	out	0x17, r24	; 23
 7ce:	08 95       	ret
 7d0:	24 b3       	in	r18, 0x14	; 20
 7d2:	81 e0       	ldi	r24, 0x01	; 1
 7d4:	90 e0       	ldi	r25, 0x00	; 0
 7d6:	02 c0       	rjmp	.+4      	; 0x7dc <DIO_voidSetPinDir+0xbc>
 7d8:	88 0f       	add	r24, r24
 7da:	99 1f       	adc	r25, r25
 7dc:	6a 95       	dec	r22
 7de:	e2 f7       	brpl	.-8      	; 0x7d8 <DIO_voidSetPinDir+0xb8>
 7e0:	80 95       	com	r24
 7e2:	82 23       	and	r24, r18
 7e4:	84 bb       	out	0x14, r24	; 20
 7e6:	08 95       	ret
 7e8:	21 b3       	in	r18, 0x11	; 17
 7ea:	81 e0       	ldi	r24, 0x01	; 1
 7ec:	90 e0       	ldi	r25, 0x00	; 0
 7ee:	02 c0       	rjmp	.+4      	; 0x7f4 <DIO_voidSetPinDir+0xd4>
 7f0:	88 0f       	add	r24, r24
 7f2:	99 1f       	adc	r25, r25
 7f4:	6a 95       	dec	r22
 7f6:	e2 f7       	brpl	.-8      	; 0x7f0 <DIO_voidSetPinDir+0xd0>
 7f8:	80 95       	com	r24
 7fa:	82 23       	and	r24, r18
 7fc:	81 bb       	out	0x11, r24	; 17
 7fe:	08 95       	ret

00000800 <DIO_voidSetPinVal>:
 800:	41 30       	cpi	r20, 0x01	; 1
 802:	a1 f5       	brne	.+104    	; 0x86c <__stack+0xd>
 804:	81 30       	cpi	r24, 0x01	; 1
 806:	89 f0       	breq	.+34     	; 0x82a <DIO_voidSetPinVal+0x2a>
 808:	28 f0       	brcs	.+10     	; 0x814 <DIO_voidSetPinVal+0x14>
 80a:	82 30       	cpi	r24, 0x02	; 2
 80c:	c9 f0       	breq	.+50     	; 0x840 <DIO_voidSetPinVal+0x40>
 80e:	83 30       	cpi	r24, 0x03	; 3
 810:	11 f1       	breq	.+68     	; 0x856 <DIO_voidSetPinVal+0x56>
 812:	08 95       	ret
 814:	2b b3       	in	r18, 0x1b	; 27
 816:	81 e0       	ldi	r24, 0x01	; 1
 818:	90 e0       	ldi	r25, 0x00	; 0
 81a:	02 c0       	rjmp	.+4      	; 0x820 <DIO_voidSetPinVal+0x20>
 81c:	88 0f       	add	r24, r24
 81e:	99 1f       	adc	r25, r25
 820:	6a 95       	dec	r22
 822:	e2 f7       	brpl	.-8      	; 0x81c <DIO_voidSetPinVal+0x1c>
 824:	82 2b       	or	r24, r18
 826:	8b bb       	out	0x1b, r24	; 27
 828:	08 95       	ret
 82a:	28 b3       	in	r18, 0x18	; 24
 82c:	81 e0       	ldi	r24, 0x01	; 1
 82e:	90 e0       	ldi	r25, 0x00	; 0
 830:	02 c0       	rjmp	.+4      	; 0x836 <DIO_voidSetPinVal+0x36>
 832:	88 0f       	add	r24, r24
 834:	99 1f       	adc	r25, r25
 836:	6a 95       	dec	r22
 838:	e2 f7       	brpl	.-8      	; 0x832 <DIO_voidSetPinVal+0x32>
 83a:	82 2b       	or	r24, r18
 83c:	88 bb       	out	0x18, r24	; 24
 83e:	08 95       	ret
 840:	25 b3       	in	r18, 0x15	; 21
 842:	81 e0       	ldi	r24, 0x01	; 1
 844:	90 e0       	ldi	r25, 0x00	; 0
 846:	02 c0       	rjmp	.+4      	; 0x84c <DIO_voidSetPinVal+0x4c>
 848:	88 0f       	add	r24, r24
 84a:	99 1f       	adc	r25, r25
 84c:	6a 95       	dec	r22
 84e:	e2 f7       	brpl	.-8      	; 0x848 <DIO_voidSetPinVal+0x48>
 850:	82 2b       	or	r24, r18
 852:	85 bb       	out	0x15, r24	; 21
 854:	08 95       	ret
 856:	22 b3       	in	r18, 0x12	; 18
 858:	81 e0       	ldi	r24, 0x01	; 1
 85a:	90 e0       	ldi	r25, 0x00	; 0
 85c:	02 c0       	rjmp	.+4      	; 0x862 <__stack+0x3>
 85e:	88 0f       	add	r24, r24
 860:	99 1f       	adc	r25, r25
 862:	6a 95       	dec	r22
 864:	e2 f7       	brpl	.-8      	; 0x85e <DIO_voidSetPinVal+0x5e>
 866:	82 2b       	or	r24, r18
 868:	82 bb       	out	0x12, r24	; 18
 86a:	08 95       	ret
 86c:	41 11       	cpse	r20, r1
 86e:	37 c0       	rjmp	.+110    	; 0x8de <__stack+0x7f>
 870:	81 30       	cpi	r24, 0x01	; 1
 872:	91 f0       	breq	.+36     	; 0x898 <__stack+0x39>
 874:	28 f0       	brcs	.+10     	; 0x880 <__stack+0x21>
 876:	82 30       	cpi	r24, 0x02	; 2
 878:	d9 f0       	breq	.+54     	; 0x8b0 <__stack+0x51>
 87a:	83 30       	cpi	r24, 0x03	; 3
 87c:	29 f1       	breq	.+74     	; 0x8c8 <__stack+0x69>
 87e:	08 95       	ret
 880:	2b b3       	in	r18, 0x1b	; 27
 882:	81 e0       	ldi	r24, 0x01	; 1
 884:	90 e0       	ldi	r25, 0x00	; 0
 886:	02 c0       	rjmp	.+4      	; 0x88c <__stack+0x2d>
 888:	88 0f       	add	r24, r24
 88a:	99 1f       	adc	r25, r25
 88c:	6a 95       	dec	r22
 88e:	e2 f7       	brpl	.-8      	; 0x888 <__stack+0x29>
 890:	80 95       	com	r24
 892:	82 23       	and	r24, r18
 894:	8b bb       	out	0x1b, r24	; 27
 896:	08 95       	ret
 898:	28 b3       	in	r18, 0x18	; 24
 89a:	81 e0       	ldi	r24, 0x01	; 1
 89c:	90 e0       	ldi	r25, 0x00	; 0
 89e:	02 c0       	rjmp	.+4      	; 0x8a4 <__stack+0x45>
 8a0:	88 0f       	add	r24, r24
 8a2:	99 1f       	adc	r25, r25
 8a4:	6a 95       	dec	r22
 8a6:	e2 f7       	brpl	.-8      	; 0x8a0 <__stack+0x41>
 8a8:	80 95       	com	r24
 8aa:	82 23       	and	r24, r18
 8ac:	88 bb       	out	0x18, r24	; 24
 8ae:	08 95       	ret
 8b0:	25 b3       	in	r18, 0x15	; 21
 8b2:	81 e0       	ldi	r24, 0x01	; 1
 8b4:	90 e0       	ldi	r25, 0x00	; 0
 8b6:	02 c0       	rjmp	.+4      	; 0x8bc <__stack+0x5d>
 8b8:	88 0f       	add	r24, r24
 8ba:	99 1f       	adc	r25, r25
 8bc:	6a 95       	dec	r22
 8be:	e2 f7       	brpl	.-8      	; 0x8b8 <__stack+0x59>
 8c0:	80 95       	com	r24
 8c2:	82 23       	and	r24, r18
 8c4:	85 bb       	out	0x15, r24	; 21
 8c6:	08 95       	ret
 8c8:	22 b3       	in	r18, 0x12	; 18
 8ca:	81 e0       	ldi	r24, 0x01	; 1
 8cc:	90 e0       	ldi	r25, 0x00	; 0
 8ce:	02 c0       	rjmp	.+4      	; 0x8d4 <__stack+0x75>
 8d0:	88 0f       	add	r24, r24
 8d2:	99 1f       	adc	r25, r25
 8d4:	6a 95       	dec	r22
 8d6:	e2 f7       	brpl	.-8      	; 0x8d0 <__stack+0x71>
 8d8:	80 95       	com	r24
 8da:	82 23       	and	r24, r18
 8dc:	82 bb       	out	0x12, r24	; 18
 8de:	08 95       	ret

000008e0 <DIO_u8ReadPinVal>:


u8 DIO_u8ReadPinVal(u8 copy_u8port, u8 copy_u8pin){
	
	u8 LOC_u8val=-1 ; 
	switch(copy_u8port){
 8e0:	81 30       	cpi	r24, 0x01	; 1
 8e2:	79 f0       	breq	.+30     	; 0x902 <DIO_u8ReadPinVal+0x22>
 8e4:	28 f0       	brcs	.+10     	; 0x8f0 <DIO_u8ReadPinVal+0x10>
 8e6:	82 30       	cpi	r24, 0x02	; 2
 8e8:	a9 f0       	breq	.+42     	; 0x914 <DIO_u8ReadPinVal+0x34>
 8ea:	83 30       	cpi	r24, 0x03	; 3
 8ec:	e1 f0       	breq	.+56     	; 0x926 <DIO_u8ReadPinVal+0x46>
 8ee:	24 c0       	rjmp	.+72     	; 0x938 <DIO_u8ReadPinVal+0x58>
		
		case DIO_PORTA:LOC_u8val=GET_BIT(PINA_REG,copy_u8pin) ; break;
 8f0:	89 b3       	in	r24, 0x19	; 25
 8f2:	90 e0       	ldi	r25, 0x00	; 0
 8f4:	02 c0       	rjmp	.+4      	; 0x8fa <DIO_u8ReadPinVal+0x1a>
 8f6:	95 95       	asr	r25
 8f8:	87 95       	ror	r24
 8fa:	6a 95       	dec	r22
 8fc:	e2 f7       	brpl	.-8      	; 0x8f6 <DIO_u8ReadPinVal+0x16>
 8fe:	81 70       	andi	r24, 0x01	; 1
 900:	08 95       	ret
		case DIO_PORTB:LOC_u8val=GET_BIT(PINB_REG,copy_u8pin) ; break;
 902:	86 b3       	in	r24, 0x16	; 22
 904:	90 e0       	ldi	r25, 0x00	; 0
 906:	02 c0       	rjmp	.+4      	; 0x90c <DIO_u8ReadPinVal+0x2c>
 908:	95 95       	asr	r25
 90a:	87 95       	ror	r24
 90c:	6a 95       	dec	r22
 90e:	e2 f7       	brpl	.-8      	; 0x908 <DIO_u8ReadPinVal+0x28>
 910:	81 70       	andi	r24, 0x01	; 1
 912:	08 95       	ret
		case DIO_PORTC:LOC_u8val=GET_BIT(PINC_REG,copy_u8pin) ; break;
 914:	83 b3       	in	r24, 0x13	; 19
 916:	90 e0       	ldi	r25, 0x00	; 0
 918:	02 c0       	rjmp	.+4      	; 0x91e <DIO_u8ReadPinVal+0x3e>
 91a:	95 95       	asr	r25
 91c:	87 95       	ror	r24
 91e:	6a 95       	dec	r22
 920:	e2 f7       	brpl	.-8      	; 0x91a <DIO_u8ReadPinVal+0x3a>
 922:	81 70       	andi	r24, 0x01	; 1
 924:	08 95       	ret
		case DIO_PORTD:LOC_u8val=GET_BIT(PIND_REG,copy_u8pin) ; break;
 926:	80 b3       	in	r24, 0x10	; 16
 928:	90 e0       	ldi	r25, 0x00	; 0
 92a:	02 c0       	rjmp	.+4      	; 0x930 <DIO_u8ReadPinVal+0x50>
 92c:	95 95       	asr	r25
 92e:	87 95       	ror	r24
 930:	6a 95       	dec	r22
 932:	e2 f7       	brpl	.-8      	; 0x92c <DIO_u8ReadPinVal+0x4c>
 934:	81 70       	andi	r24, 0x01	; 1
 936:	08 95       	ret



u8 DIO_u8ReadPinVal(u8 copy_u8port, u8 copy_u8pin){
	
	u8 LOC_u8val=-1 ; 
 938:	8f ef       	ldi	r24, 0xFF	; 255
		
	}
	
	
	return LOC_u8val ; 
}
 93a:	08 95       	ret

0000093c <DIO_voidSetPortDir>:

void DIO_voidSetPortDir(u8 copy_u8port , u8 copy_u8dir) 
{
	switch(copy_u8port){
 93c:	81 30       	cpi	r24, 0x01	; 1
 93e:	41 f0       	breq	.+16     	; 0x950 <DIO_voidSetPortDir+0x14>
 940:	28 f0       	brcs	.+10     	; 0x94c <DIO_voidSetPortDir+0x10>
 942:	82 30       	cpi	r24, 0x02	; 2
 944:	39 f0       	breq	.+14     	; 0x954 <DIO_voidSetPortDir+0x18>
 946:	83 30       	cpi	r24, 0x03	; 3
 948:	39 f0       	breq	.+14     	; 0x958 <DIO_voidSetPortDir+0x1c>
 94a:	08 95       	ret
		
		case DIO_PORTA: DDRA_REG = copy_u8dir ; break;
 94c:	6a bb       	out	0x1a, r22	; 26
 94e:	08 95       	ret
		case DIO_PORTB: DDRB_REG = copy_u8dir ; break;
 950:	67 bb       	out	0x17, r22	; 23
 952:	08 95       	ret
		case DIO_PORTC: DDRC_REG = copy_u8dir ; break;
 954:	64 bb       	out	0x14, r22	; 20
 956:	08 95       	ret
		case DIO_PORTD: DDRD_REG = copy_u8dir ; break;
 958:	61 bb       	out	0x11, r22	; 17
 95a:	08 95       	ret

0000095c <__vector_1>:
	
}

void __vector_1(void)__attribute__((signal));
void __vector_1(void)
{
 95c:	1f 92       	push	r1
 95e:	0f 92       	push	r0
 960:	0f b6       	in	r0, 0x3f	; 63
 962:	0f 92       	push	r0
 964:	11 24       	eor	r1, r1
 966:	2f 93       	push	r18
 968:	3f 93       	push	r19
 96a:	4f 93       	push	r20
 96c:	5f 93       	push	r21
 96e:	6f 93       	push	r22
 970:	7f 93       	push	r23
 972:	8f 93       	push	r24
 974:	9f 93       	push	r25
 976:	af 93       	push	r26
 978:	bf 93       	push	r27
 97a:	ef 93       	push	r30
 97c:	ff 93       	push	r31
	EXPTR[0]() ;
 97e:	e0 91 6a 00 	lds	r30, 0x006A	; 0x80006a <EXPTR>
 982:	f0 91 6b 00 	lds	r31, 0x006B	; 0x80006b <EXPTR+0x1>
 986:	09 95       	icall
	
}
 988:	ff 91       	pop	r31
 98a:	ef 91       	pop	r30
 98c:	bf 91       	pop	r27
 98e:	af 91       	pop	r26
 990:	9f 91       	pop	r25
 992:	8f 91       	pop	r24
 994:	7f 91       	pop	r23
 996:	6f 91       	pop	r22
 998:	5f 91       	pop	r21
 99a:	4f 91       	pop	r20
 99c:	3f 91       	pop	r19
 99e:	2f 91       	pop	r18
 9a0:	0f 90       	pop	r0
 9a2:	0f be       	out	0x3f, r0	; 63
 9a4:	0f 90       	pop	r0
 9a6:	1f 90       	pop	r1
 9a8:	18 95       	reti

000009aa <__vector_2>:

void __vector_2(void)__attribute__((signal));
void __vector_2(void)
{
 9aa:	1f 92       	push	r1
 9ac:	0f 92       	push	r0
 9ae:	0f b6       	in	r0, 0x3f	; 63
 9b0:	0f 92       	push	r0
 9b2:	11 24       	eor	r1, r1
 9b4:	2f 93       	push	r18
 9b6:	3f 93       	push	r19
 9b8:	4f 93       	push	r20
 9ba:	5f 93       	push	r21
 9bc:	6f 93       	push	r22
 9be:	7f 93       	push	r23
 9c0:	8f 93       	push	r24
 9c2:	9f 93       	push	r25
 9c4:	af 93       	push	r26
 9c6:	bf 93       	push	r27
 9c8:	ef 93       	push	r30
 9ca:	ff 93       	push	r31
	EXPTR[1]() ;
 9cc:	e0 91 6c 00 	lds	r30, 0x006C	; 0x80006c <EXPTR+0x2>
 9d0:	f0 91 6d 00 	lds	r31, 0x006D	; 0x80006d <EXPTR+0x3>
 9d4:	09 95       	icall
	
}
 9d6:	ff 91       	pop	r31
 9d8:	ef 91       	pop	r30
 9da:	bf 91       	pop	r27
 9dc:	af 91       	pop	r26
 9de:	9f 91       	pop	r25
 9e0:	8f 91       	pop	r24
 9e2:	7f 91       	pop	r23
 9e4:	6f 91       	pop	r22
 9e6:	5f 91       	pop	r21
 9e8:	4f 91       	pop	r20
 9ea:	3f 91       	pop	r19
 9ec:	2f 91       	pop	r18
 9ee:	0f 90       	pop	r0
 9f0:	0f be       	out	0x3f, r0	; 63
 9f2:	0f 90       	pop	r0
 9f4:	1f 90       	pop	r1
 9f6:	18 95       	reti

000009f8 <__vector_3>:

void __vector_3(void)__attribute__((signal));
void __vector_3(void)
{
 9f8:	1f 92       	push	r1
 9fa:	0f 92       	push	r0
 9fc:	0f b6       	in	r0, 0x3f	; 63
 9fe:	0f 92       	push	r0
 a00:	11 24       	eor	r1, r1
 a02:	2f 93       	push	r18
 a04:	3f 93       	push	r19
 a06:	4f 93       	push	r20
 a08:	5f 93       	push	r21
 a0a:	6f 93       	push	r22
 a0c:	7f 93       	push	r23
 a0e:	8f 93       	push	r24
 a10:	9f 93       	push	r25
 a12:	af 93       	push	r26
 a14:	bf 93       	push	r27
 a16:	ef 93       	push	r30
 a18:	ff 93       	push	r31
	EXPTR[2]() ;
 a1a:	e0 91 6e 00 	lds	r30, 0x006E	; 0x80006e <EXPTR+0x4>
 a1e:	f0 91 6f 00 	lds	r31, 0x006F	; 0x80006f <EXPTR+0x5>
 a22:	09 95       	icall
	
 a24:	ff 91       	pop	r31
 a26:	ef 91       	pop	r30
 a28:	bf 91       	pop	r27
 a2a:	af 91       	pop	r26
 a2c:	9f 91       	pop	r25
 a2e:	8f 91       	pop	r24
 a30:	7f 91       	pop	r23
 a32:	6f 91       	pop	r22
 a34:	5f 91       	pop	r21
 a36:	4f 91       	pop	r20
 a38:	3f 91       	pop	r19
 a3a:	2f 91       	pop	r18
 a3c:	0f 90       	pop	r0
 a3e:	0f be       	out	0x3f, r0	; 63
 a40:	0f 90       	pop	r0
 a42:	1f 90       	pop	r1
 a44:	18 95       	reti

00000a46 <GI_voidEnable>:
#include "GI_interface.h"


void GI_voidEnable()
{
	SET_BIT(SREG,I_BIT);
 a46:	8f b7       	in	r24, 0x3f	; 63
 a48:	80 68       	ori	r24, 0x80	; 128
 a4a:	8f bf       	out	0x3f, r24	; 63
 a4c:	08 95       	ret

00000a4e <TIM0_voidInit>:

void (*TIM0_PTR[2])(void) = {null} ;

void TIM0_voidInit(u8 copy_u8mode)
{
	switch(copy_u8mode)
 a4e:	88 23       	and	r24, r24
 a50:	19 f0       	breq	.+6      	; 0xa58 <TIM0_voidInit+0xa>
 a52:	81 30       	cpi	r24, 0x01	; 1
 a54:	89 f0       	breq	.+34     	; 0xa78 <TIM0_voidInit+0x2a>
 a56:	08 95       	ret
	{
		case OV_MODE: /*Select mode : normal mode*/
		
						CLR_BIT(TCCR0_REG, 3);
 a58:	83 b7       	in	r24, 0x33	; 51
 a5a:	87 7f       	andi	r24, 0xF7	; 247
 a5c:	83 bf       	out	0x33, r24	; 51
						CLR_BIT(TCCR0_REG, 6);
 a5e:	83 b7       	in	r24, 0x33	; 51
 a60:	8f 7b       	andi	r24, 0xBF	; 191
 a62:	83 bf       	out	0x33, r24	; 51
						
						/*set prescaler*/
						
						TCCR0_REG &= 0b11111000 ;
 a64:	83 b7       	in	r24, 0x33	; 51
 a66:	88 7f       	andi	r24, 0xF8	; 248
 a68:	83 bf       	out	0x33, r24	; 51
						TCCR0_REG |= TIM0_prescaler;
 a6a:	83 b7       	in	r24, 0x33	; 51
 a6c:	83 60       	ori	r24, 0x03	; 3
 a6e:	83 bf       	out	0x33, r24	; 51
						
						/*Enable overflow interrupt : PIE*/
						
						SET_BIT(TIMSK_REG,0); break ;
 a70:	89 b7       	in	r24, 0x39	; 57
 a72:	81 60       	ori	r24, 0x01	; 1
 a74:	89 bf       	out	0x39, r24	; 57
 a76:	08 95       	ret
						
		case CTC_MODE: /*Select mode : CTC mode*/
		
						SET_BIT(TCCR0_REG, 3);
 a78:	83 b7       	in	r24, 0x33	; 51
 a7a:	88 60       	ori	r24, 0x08	; 8
 a7c:	83 bf       	out	0x33, r24	; 51
						CLR_BIT(TCCR0_REG, 6);
 a7e:	83 b7       	in	r24, 0x33	; 51
 a80:	8f 7b       	andi	r24, 0xBF	; 191
 a82:	83 bf       	out	0x33, r24	; 51
						
						/*set prescaler*/
						
						TCCR0_REG &= 0b11111000 ;
 a84:	83 b7       	in	r24, 0x33	; 51
 a86:	88 7f       	andi	r24, 0xF8	; 248
 a88:	83 bf       	out	0x33, r24	; 51
						TCCR0_REG |= TIM0_prescaler;
 a8a:	83 b7       	in	r24, 0x33	; 51
 a8c:	83 60       	ori	r24, 0x03	; 3
 a8e:	83 bf       	out	0x33, r24	; 51
						
						/*Enable CTC interrupt*/
						SET_BIT(TIMSK_REG, 1);
 a90:	89 b7       	in	r24, 0x39	; 57
 a92:	82 60       	ori	r24, 0x02	; 2
 a94:	89 bf       	out	0x39, r24	; 57
						
						/*set OCR0 val*/
						OCR0_REG = OCR0_VAL; break ;
 a96:	8a ef       	ldi	r24, 0xFA	; 250
 a98:	8c bf       	out	0x3c, r24	; 60
 a9a:	08 95       	ret

00000a9c <TIM0_voidSetCallBack>:
}


void TIM0_voidSetCallBack(void (*ptr)(void), u8 copy_u8mode)
{
	switch(copy_u8mode)
 a9c:	66 23       	and	r22, r22
 a9e:	19 f0       	breq	.+6      	; 0xaa6 <TIM0_voidSetCallBack+0xa>
 aa0:	61 30       	cpi	r22, 0x01	; 1
 aa2:	31 f0       	breq	.+12     	; 0xab0 <TIM0_voidSetCallBack+0x14>
 aa4:	08 95       	ret
	{
		case OV_MODE: TIM0_PTR[0] = ptr; break;
 aa6:	90 93 71 00 	sts	0x0071, r25	; 0x800071 <TIM0_PTR+0x1>
 aaa:	80 93 70 00 	sts	0x0070, r24	; 0x800070 <TIM0_PTR>
 aae:	08 95       	ret
		case CTC_MODE: TIM0_PTR[1] = ptr; break;
 ab0:	90 93 73 00 	sts	0x0073, r25	; 0x800073 <TIM0_PTR+0x3>
 ab4:	80 93 72 00 	sts	0x0072, r24	; 0x800072 <TIM0_PTR+0x2>
 ab8:	08 95       	ret

00000aba <__vector_10>:
	}
}


ISR(TIMER0_CTC)
{
 aba:	1f 92       	push	r1
 abc:	0f 92       	push	r0
 abe:	0f b6       	in	r0, 0x3f	; 63
 ac0:	0f 92       	push	r0
 ac2:	11 24       	eor	r1, r1
 ac4:	2f 93       	push	r18
 ac6:	3f 93       	push	r19
 ac8:	4f 93       	push	r20
 aca:	5f 93       	push	r21
 acc:	6f 93       	push	r22
 ace:	7f 93       	push	r23
 ad0:	8f 93       	push	r24
 ad2:	9f 93       	push	r25
 ad4:	af 93       	push	r26
 ad6:	bf 93       	push	r27
 ad8:	ef 93       	push	r30
 ada:	ff 93       	push	r31
	TIM0_PTR[1]();
 adc:	e0 91 72 00 	lds	r30, 0x0072	; 0x800072 <TIM0_PTR+0x2>
 ae0:	f0 91 73 00 	lds	r31, 0x0073	; 0x800073 <TIM0_PTR+0x3>
 ae4:	09 95       	icall
}
 ae6:	ff 91       	pop	r31
 ae8:	ef 91       	pop	r30
 aea:	bf 91       	pop	r27
 aec:	af 91       	pop	r26
 aee:	9f 91       	pop	r25
 af0:	8f 91       	pop	r24
 af2:	7f 91       	pop	r23
 af4:	6f 91       	pop	r22
 af6:	5f 91       	pop	r21
 af8:	4f 91       	pop	r20
 afa:	3f 91       	pop	r19
 afc:	2f 91       	pop	r18
 afe:	0f 90       	pop	r0
 b00:	0f be       	out	0x3f, r0	; 63
 b02:	0f 90       	pop	r0
 b04:	1f 90       	pop	r1
 b06:	18 95       	reti

00000b08 <__udivmodsi4>:
 b08:	a1 e2       	ldi	r26, 0x21	; 33
 b0a:	1a 2e       	mov	r1, r26
 b0c:	aa 1b       	sub	r26, r26
 b0e:	bb 1b       	sub	r27, r27
 b10:	fd 01       	movw	r30, r26
 b12:	0d c0       	rjmp	.+26     	; 0xb2e <__udivmodsi4_ep>

00000b14 <__udivmodsi4_loop>:
 b14:	aa 1f       	adc	r26, r26
 b16:	bb 1f       	adc	r27, r27
 b18:	ee 1f       	adc	r30, r30
 b1a:	ff 1f       	adc	r31, r31
 b1c:	a2 17       	cp	r26, r18
 b1e:	b3 07       	cpc	r27, r19
 b20:	e4 07       	cpc	r30, r20
 b22:	f5 07       	cpc	r31, r21
 b24:	20 f0       	brcs	.+8      	; 0xb2e <__udivmodsi4_ep>
 b26:	a2 1b       	sub	r26, r18
 b28:	b3 0b       	sbc	r27, r19
 b2a:	e4 0b       	sbc	r30, r20
 b2c:	f5 0b       	sbc	r31, r21

00000b2e <__udivmodsi4_ep>:
 b2e:	66 1f       	adc	r22, r22
 b30:	77 1f       	adc	r23, r23
 b32:	88 1f       	adc	r24, r24
 b34:	99 1f       	adc	r25, r25
 b36:	1a 94       	dec	r1
 b38:	69 f7       	brne	.-38     	; 0xb14 <__udivmodsi4_loop>
 b3a:	60 95       	com	r22
 b3c:	70 95       	com	r23
 b3e:	80 95       	com	r24
 b40:	90 95       	com	r25
 b42:	9b 01       	movw	r18, r22
 b44:	ac 01       	movw	r20, r24
 b46:	bd 01       	movw	r22, r26
 b48:	cf 01       	movw	r24, r30
 b4a:	08 95       	ret

00000b4c <__umulhisi3>:
 b4c:	a2 9f       	mul	r26, r18
 b4e:	b0 01       	movw	r22, r0
 b50:	b3 9f       	mul	r27, r19
 b52:	c0 01       	movw	r24, r0
 b54:	a3 9f       	mul	r26, r19
 b56:	70 0d       	add	r23, r0
 b58:	81 1d       	adc	r24, r1
 b5a:	11 24       	eor	r1, r1
 b5c:	91 1d       	adc	r25, r1
 b5e:	b2 9f       	mul	r27, r18
 b60:	70 0d       	add	r23, r0
 b62:	81 1d       	adc	r24, r1
 b64:	11 24       	eor	r1, r1
 b66:	91 1d       	adc	r25, r1
 b68:	08 95       	ret

00000b6a <_exit>:
 b6a:	f8 94       	cli

00000b6c <__stop_program>:
 b6c:	ff cf       	rjmp	.-2      	; 0xb6c <__stop_program>
